target datalayout = "e-m:e-p270:32:32-p271:32:32-p272:64:64-i64:64-i128:128-f80:128-n8:16:32:64-S128"
target triple = "x86_64-pc-linux-gnu"

%struct.gmx_ana_index_t = type { i32, ptr, i32 }

@.str.3 = private unnamed_addr constant [129 x i8] c"generated/home/dtcxzyw/WorkSpace/Projects/compilers/llvm-opt-benchmark/bench/gromacs/gromacs/src/gromacs/selection/indexutil.cpp\00", align 1
@.str.11 = private unnamed_addr constant [9 x i8] c"g->index\00", align 1

; Function Attrs: mustprogress nounwind uwtable
define void @_Z19gmx_ana_index_clearP15gmx_ana_index_t(ptr noundef %0) #1 {
  %2 = alloca ptr, align 8
  store ptr %0, ptr %2, align 8, !tbaa !232
  %3 = load ptr, ptr %2, align 8, !tbaa !232
  %4 = getelementptr inbounds nuw %struct.gmx_ana_index_t, ptr %3, i32 0, i32 0
  store i32 0, ptr %4, align 8, !tbaa !234
  %5 = load ptr, ptr %2, align 8, !tbaa !232
  %6 = getelementptr inbounds nuw %struct.gmx_ana_index_t, ptr %5, i32 0, i32 1
  store ptr null, ptr %6, align 8, !tbaa !236
  %7 = load ptr, ptr %2, align 8, !tbaa !232
  %8 = getelementptr inbounds nuw %struct.gmx_ana_index_t, ptr %7, i32 0, i32 2
  store i32 0, ptr %8, align 8, !tbaa !238
  ret void
}

; Function Attrs: inlinehint mustprogress uwtable
define internal void @_ZL14gmx_sfree_implIiEvPKcS1_iPT_(ptr noundef %0, ptr noundef %1, i32 noundef %2, ptr noundef %3) #5 {
  %5 = alloca ptr, align 8
  %6 = alloca ptr, align 8
  %7 = alloca i32, align 4
  %8 = alloca ptr, align 8
  store ptr %0, ptr %5, align 8, !tbaa !54
  store ptr %1, ptr %6, align 8, !tbaa !54
  store i32 %2, ptr %7, align 4, !tbaa !114
  store ptr %3, ptr %8, align 8, !tbaa !77
  %9 = load ptr, ptr %5, align 8, !tbaa !54
  %10 = load ptr, ptr %6, align 8, !tbaa !54
  %11 = load i32, ptr %7, align 4, !tbaa !114
  %12 = load ptr, ptr %8, align 8, !tbaa !77
  call void @_Z9save_freePKcS0_iPv(ptr noundef %9, ptr noundef %10, i32 noundef %11, ptr noundef %12)
  ret void
}

; Function Attrs: mustprogress uwtable
define void @_Z20gmx_ana_index_deinitP15gmx_ana_index_t(ptr noundef %0) #0 {
  %2 = alloca ptr, align 8
  store ptr %0, ptr %2, align 8, !tbaa !232
  %3 = load ptr, ptr %2, align 8, !tbaa !232
  %4 = getelementptr inbounds nuw %struct.gmx_ana_index_t, ptr %3, i32 0, i32 2
  %5 = load i32, ptr %4, align 8, !tbaa !238
  %6 = icmp sgt i32 %5, 0
  br i1 %6, label %7, label %11

7:                                                ; preds = %1
  %8 = load ptr, ptr %2, align 8, !tbaa !232
  %9 = getelementptr inbounds nuw %struct.gmx_ana_index_t, ptr %8, i32 0, i32 1
  %10 = load ptr, ptr %9, align 8, !tbaa !236
  call void @_ZL14gmx_sfree_implIiEvPKcS1_iPT_(ptr noundef @.str.11, ptr noundef @.str.3, i32 noundef 349, ptr noundef %10)
  br label %11

11:                                               ; preds = %7, %1
  %12 = load ptr, ptr %2, align 8, !tbaa !232
  call void @_Z19gmx_ana_index_clearP15gmx_ana_index_t(ptr noundef %12)
  ret void
}