; Function Attrs: mustprogress uwtable
define void @_Z20gmx_ana_index_deinitP15gmx_ana_index_t(ptr noundef captures(none) initializes((0, 4)) %0) local_unnamed_addr #0 {
  %2 = getelementptr inbounds nuw i8, ptr %0, i64 16
  %3 = load i32, ptr %2, align 8, !tbaa !75
  %4 = icmp sgt i32 %3, 0
  br i1 %4, label %5, label %8

5:                                                ; preds = %1
  %6 = getelementptr inbounds nuw i8, ptr %0, i64 8
  %7 = load ptr, ptr %6, align 8, !tbaa !108
  tail call void @_Z9save_freePKcS0_iPv(ptr noundef nonnull @.str.11, ptr noundef nonnull @.str.3, i32 noundef 349, ptr noundef %7)
  br label %8

8:                                                ; preds = %5, %1
  store i32 0, ptr %0, align 8, !tbaa !73
  %9 = getelementptr inbounds nuw i8, ptr %0, i64 8
  store ptr null, ptr %9, align 8, !tbaa !108
  store i32 0, ptr %2, align 8, !tbaa !75
  ret void
}